(dp0
S'OriginalConfig'
p1
ccopy_reg
_reconstructor
p2
(cWMCore.Configuration
Configuration
p3
c__builtin__
object
p4
Ntp5
Rp6
(dp7
S'Site'
p8
g2
(cWMCore.Configuration
ConfigSection
p9
g4
Ntp10
Rp11
(dp12
S'_internal_skipChecks'
p13
I00
sS'_internal_documentation'
p14
S''
p15
sS'_internal_settings'
p16
c__builtin__
set
p17
((lp18
S'storageSite'
p19
atp20
Rp21
sS'_internal_name'
p22
g8
sS'_internal_docstrings'
p23
(dp24
sS'_internal_children'
p25
g17
((lp26
tp27
Rp28
sg19
S'T3_US_FNALLPC'
p29
sS'_internal_parent_ref'
p30
NsbsS'_internal_sections'
p31
(lp32
S'General'
p33
aS'JobType'
p34
aS'Data'
p35
ag8
aS'User'
p36
aS'Debug'
p37
asg36
g2
(g9
g4
Ntp38
Rp39
(dp40
g13
I00
sg14
g15
sg16
g17
((lp41
tp42
Rp43
sg22
g36
sg23
(dp44
sg25
g17
((lp45
tp46
Rp47
sg30
Nsbsg37
g2
(g9
g4
Ntp48
Rp49
(dp50
g13
I00
sg14
g15
sg16
g17
((lp51
tp52
Rp53
sg22
g37
sg23
(dp54
sg25
g17
((lp55
tp56
Rp57
sg30
Nsbsg33
g2
(g9
g4
Ntp58
Rp59
(dp60
S'workArea'
p61
S'crab/pfnano_v2_simon/'
p62
sg13
I00
sg14
g15
sg16
g17
((lp63
g61
aS'transferOutputs'
p64
aS'transferLogs'
p65
aS'requestName'
p66
atp67
Rp68
sg22
g33
sg23
(dp69
sg64
I01
sg25
g17
((lp70
tp71
Rp72
sg66
S'pfnano_v2_simon_2017_DYJetsToLL_M-50_take2'
p73
sg30
Nsg65
I01
sbsg35
g2
(g9
g4
Ntp74
Rp75
(dp76
S'inputDataset'
p77
S'/DYJetsToLL_M-50_TuneCP5_13TeV-madgraphMLM-pythia8/RunIISummer20UL17MiniAODv2-106X_mc2017_realistic_v9-v2/MINIAODSIM'
p78
sS'outputDatasetTag'
p79
S'DYJetsToLL_M-50_take2'
p80
sg13
I00
sS'splitting'
p81
S'FileBased'
p82
sS'unitsPerJob'
p83
I1
sg14
g15
sg16
g17
((lp84
g77
ag79
aS'publication'
p85
ag83
aS'inputDBS'
p86
ag81
aS'allowNonValidInputDataset'
p87
aS'outLFNDirBase'
p88
aS'lumiMask'
p89
atp90
Rp91
sg22
g35
sg86
S'global'
p92
sg23
(dp93
sg87
I01
sg25
g17
((lp94
tp95
Rp96
sg88
S'/store/user/srothman/v2_simon/2017/DYJetsToLL'
p97
sg30
Nsg89
g15
sg85
I00
sbsg34
g2
(g9
g4
Ntp98
Rp99
(dp100
S'numCores'
p101
I4
sg13
I00
sS'pyCfgParams'
p102
(lp103
S'isMC=True'
p104
aS'reportEvery=1000'
p105
aS'tag=v2_simon'
p106
aS'globalTag=106X_mc2017_realistic_v9-v2'
p107
asg14
g15
sg16
g17
((lp108
g101
aS'maxMemoryMB'
p109
ag102
aS'pluginName'
p110
aS'allowUndistributedCMSSW'
p111
aS'psetName'
p112
atp113
Rp114
sg22
g34
sg23
(dp115
sg110
S'Analysis'
p116
sg25
g17
((lp117
tp118
Rp119
sg111
I01
sg112
S'/uscms_data/d3/srothman/CMSSW_10_6_26_prod/src/test.py'
p120
sg30
Nsg109
I8000
sbsbsS'voGroup'
p121
g15
sS'Server'
p122
S'cmsweb.cern.ch'
p123
sS'instance'
p124
S'prod'
p125
sS'RequestName'
p126
V220623_095324:srothman_crab_pfnano_v2_simon_2017_DYJetsToLL_M-50_take2
p127
sS'voRole'
p128
S'NULL'
p129
sS'Port'
p130
g15
s.